target datalayout = "e-m:e-p270:32:32-p271:32:32-p272:64:64-i64:64-i128:128-f80:128-n8:16:32:64-S128"
target triple = "x86_64-pc-linux-gnu"

; Function Attrs: inlinehint nounwind uwtable
define internal ptr @ossl_check_const_IPAddressOrRange_sk_type(ptr noundef %0) #3 {
  %2 = alloca ptr, align 8
  store ptr %0, ptr %2, align 8, !tbaa !46
  %3 = load ptr, ptr %2, align 8, !tbaa !46
  ret ptr %3
}

; Function Attrs: nounwind uwtable
define internal i32 @addr_contains(ptr noundef %0, ptr noundef %1, i32 noundef %2) #0 {
  %4 = alloca i32, align 4
  %5 = alloca ptr, align 8
  %6 = alloca ptr, align 8
  %7 = alloca i32, align 4
  %8 = alloca [16 x i8], align 16
  %9 = alloca [16 x i8], align 16
  %10 = alloca [16 x i8], align 16
  %11 = alloca [16 x i8], align 16
  %12 = alloca i32, align 4
  %13 = alloca i32, align 4
  %14 = alloca i32, align 4
  store ptr %0, ptr %5, align 8, !tbaa !46
  store ptr %1, ptr %6, align 8, !tbaa !46
  store i32 %2, ptr %7, align 4, !tbaa !37
  call void @llvm.lifetime.start.p0(i64 16, ptr %8) #9
  call void @llvm.lifetime.start.p0(i64 16, ptr %9) #9
  call void @llvm.lifetime.start.p0(i64 16, ptr %10) #9
  call void @llvm.lifetime.start.p0(i64 16, ptr %11) #9
  call void @llvm.lifetime.start.p0(i64 4, ptr %12) #9
  call void @llvm.lifetime.start.p0(i64 4, ptr %13) #9
  %15 = load ptr, ptr %6, align 8, !tbaa !46
  %16 = icmp eq ptr %15, null
  br i1 %16, label %21, label %17

17:                                               ; preds = %3
  %18 = load ptr, ptr %5, align 8, !tbaa !46
  %19 = load ptr, ptr %6, align 8, !tbaa !46
  %20 = icmp eq ptr %18, %19
  br i1 %20, label %21, label %22

21:                                               ; preds = %17, %3
  store i32 1, ptr %4, align 4
  store i32 1, ptr %14, align 4
  br label %88

22:                                               ; preds = %17
  %23 = load ptr, ptr %5, align 8, !tbaa !46
  %24 = icmp eq ptr %23, null
  br i1 %24, label %25, label %26

25:                                               ; preds = %22
  store i32 0, ptr %4, align 4
  store i32 1, ptr %14, align 4
  br label %88

26:                                               ; preds = %22
  store i32 0, ptr %12, align 4, !tbaa !37
  store i32 0, ptr %13, align 4, !tbaa !37
  br label %27

27:                                               ; preds = %84, %26
  %28 = load i32, ptr %13, align 4, !tbaa !37
  %29 = load ptr, ptr %6, align 8, !tbaa !46
  %30 = call ptr @ossl_check_const_IPAddressOrRange_sk_type(ptr noundef %29)
  %31 = call i32 @OPENSSL_sk_num(ptr noundef %30)
  %32 = icmp slt i32 %28, %31
  br i1 %32, label %33, label %87

33:                                               ; preds = %27
  %34 = load ptr, ptr %6, align 8, !tbaa !46
  %35 = call ptr @ossl_check_const_IPAddressOrRange_sk_type(ptr noundef %34)
  %36 = load i32, ptr %13, align 4, !tbaa !37
  %37 = call ptr @OPENSSL_sk_value(ptr noundef %35, i32 noundef %36)
  %38 = getelementptr inbounds [16 x i8], ptr %10, i64 0, i64 0
  %39 = getelementptr inbounds [16 x i8], ptr %11, i64 0, i64 0
  %40 = load i32, ptr %7, align 4, !tbaa !37
  %41 = call i32 @extract_min_max(ptr noundef %37, ptr noundef %38, ptr noundef %39, i32 noundef %40)
  %42 = icmp ne i32 %41, 0
  br i1 %42, label %44, label %43

43:                                               ; preds = %33
  store i32 0, ptr %4, align 4
  store i32 1, ptr %14, align 4
  br label %88

44:                                               ; preds = %33
  br label %45

45:                                               ; preds = %80, %44
  %46 = load i32, ptr %12, align 4, !tbaa !37
  %47 = load ptr, ptr %5, align 8, !tbaa !46
  %48 = call ptr @ossl_check_const_IPAddressOrRange_sk_type(ptr noundef %47)
  %49 = call i32 @OPENSSL_sk_num(ptr noundef %48)
  %50 = icmp sge i32 %46, %49
  br i1 %50, label %51, label %52

51:                                               ; preds = %45
  store i32 0, ptr %4, align 4
  store i32 1, ptr %14, align 4
  br label %88

52:                                               ; preds = %45
  %53 = load ptr, ptr %5, align 8, !tbaa !46
  %54 = call ptr @ossl_check_const_IPAddressOrRange_sk_type(ptr noundef %53)
  %55 = load i32, ptr %12, align 4, !tbaa !37
  %56 = call ptr @OPENSSL_sk_value(ptr noundef %54, i32 noundef %55)
  %57 = getelementptr inbounds [16 x i8], ptr %8, i64 0, i64 0
  %58 = getelementptr inbounds [16 x i8], ptr %9, i64 0, i64 0
  %59 = load i32, ptr %7, align 4, !tbaa !37
  %60 = call i32 @extract_min_max(ptr noundef %56, ptr noundef %57, ptr noundef %58, i32 noundef %59)
  %61 = icmp ne i32 %60, 0
  br i1 %61, label %63, label %62

62:                                               ; preds = %52
  store i32 0, ptr %4, align 4
  store i32 1, ptr %14, align 4
  br label %88

63:                                               ; preds = %52
  %64 = getelementptr inbounds [16 x i8], ptr %9, i64 0, i64 0
  %65 = getelementptr inbounds [16 x i8], ptr %11, i64 0, i64 0
  %66 = load i32, ptr %7, align 4, !tbaa !37
  %67 = sext i32 %66 to i64
  %68 = call i32 @memcmp(ptr noundef %64, ptr noundef %65, i64 noundef %67) #10
  %69 = icmp slt i32 %68, 0
  br i1 %69, label %70, label %71

70:                                               ; preds = %63
  br label %80

71:                                               ; preds = %63
  %72 = getelementptr inbounds [16 x i8], ptr %8, i64 0, i64 0
  %73 = getelementptr inbounds [16 x i8], ptr %10, i64 0, i64 0
  %74 = load i32, ptr %7, align 4, !tbaa !37
  %75 = sext i32 %74 to i64
  %76 = call i32 @memcmp(ptr noundef %72, ptr noundef %73, i64 noundef %75) #10
  %77 = icmp sgt i32 %76, 0
  br i1 %77, label %78, label %79

78:                                               ; preds = %71
  store i32 0, ptr %4, align 4
  store i32 1, ptr %14, align 4
  br label %88

79:                                               ; preds = %71
  br label %83

80:                                               ; preds = %70
  %81 = load i32, ptr %12, align 4, !tbaa !37
  %82 = add nsw i32 %81, 1
  store i32 %82, ptr %12, align 4, !tbaa !37
  br label %45

83:                                               ; preds = %79
  br label %84

84:                                               ; preds = %83
  %85 = load i32, ptr %13, align 4, !tbaa !37
  %86 = add nsw i32 %85, 1
  store i32 %86, ptr %13, align 4, !tbaa !37
  br label %27, !llvm.loop !84

87:                                               ; preds = %27
  store i32 1, ptr %4, align 4
  store i32 1, ptr %14, align 4
  br label %88

88:                                               ; preds = %87, %78, %62, %51, %43, %25, %21
  call void @llvm.lifetime.end.p0(i64 4, ptr %13) #9
  call void @llvm.lifetime.end.p0(i64 4, ptr %12) #9
  call void @llvm.lifetime.end.p0(i64 16, ptr %11) #9
  call void @llvm.lifetime.end.p0(i64 16, ptr %10) #9
  call void @llvm.lifetime.end.p0(i64 16, ptr %9) #9
  call void @llvm.lifetime.end.p0(i64 16, ptr %8) #9
  %89 = load i32, ptr %4, align 4
  ret i32 %89
}