; Function Attrs: nounwind uwtable
define internal fastcc range(i32 0, 2) i32 @addr_contains(ptr noundef %0, ptr noundef %1, i32 noundef range(i32 0, 17) %2) unnamed_addr #1 {
  %4 = alloca [16 x i8], align 16
  %5 = alloca [16 x i8], align 16
  %6 = alloca [16 x i8], align 16
  %7 = alloca [16 x i8], align 16
  call void @llvm.lifetime.start.p0(i64 16, ptr nonnull %4) #15
  call void @llvm.lifetime.start.p0(i64 16, ptr nonnull %5) #15
  call void @llvm.lifetime.start.p0(i64 16, ptr nonnull %6) #15
  call void @llvm.lifetime.start.p0(i64 16, ptr nonnull %7) #15
  %8 = icmp eq ptr %1, null
  %9 = icmp eq ptr %0, %1
  %or.cond = or i1 %8, %9
  br i1 %or.cond, label %.loopexit, label %10

10:                                               ; preds = %3
  %11 = icmp eq ptr %0, null
  br i1 %11, label %.loopexit, label %.preheader24

.preheader24:                                     ; preds = %10
  %12 = tail call i32 @OPENSSL_sk_num(ptr noundef nonnull %1) #15
  %13 = icmp sgt i32 %12, 0
  br i1 %13, label %.lr.ph32, label %.loopexit

.lr.ph32:                                         ; preds = %.preheader24
  %14 = zext nneg i32 %2 to i64
  br label %19

15:                                               ; preds = %28
  %16 = add nuw nsw i32 %.031, 1
  %17 = tail call i32 @OPENSSL_sk_num(ptr noundef nonnull %1) #15
  %18 = icmp slt i32 %16, %17
  br i1 %18, label %19, label %.loopexit, !llvm.loop !55

19:                                               ; preds = %.lr.ph32, %15
  %.031 = phi i32 [ 0, %.lr.ph32 ], [ %16, %15 ]
  %.01830 = phi i32 [ 0, %.lr.ph32 ], [ %.128, %15 ]
  %20 = tail call ptr @OPENSSL_sk_value(ptr noundef nonnull %1, i32 noundef %.031) #15
  %21 = call fastcc i32 @extract_min_max(ptr noundef %20, ptr noundef %6, ptr noundef %7, i32 noundef %2)
  %.not = icmp eq i32 %21, 0
  br i1 %.not, label %.loopexit, label %.preheader

.preheader:                                       ; preds = %19
  %22 = tail call i32 @OPENSSL_sk_num(ptr noundef nonnull %0) #15
  %.not2227 = icmp slt i32 %.01830, %22
  br i1 %.not2227, label %.lr.ph, label %.loopexit

.lr.ph:                                           ; preds = %.preheader, %31
  %.128 = phi i32 [ %32, %31 ], [ %.01830, %.preheader ]
  %23 = tail call ptr @OPENSSL_sk_value(ptr noundef nonnull %0, i32 noundef %.128) #15
  %24 = call fastcc i32 @extract_min_max(ptr noundef %23, ptr noundef %4, ptr noundef %5, i32 noundef %2)
  %.not23 = icmp eq i32 %24, 0
  br i1 %.not23, label %.loopexit, label %25

25:                                               ; preds = %.lr.ph
  %26 = call i32 @memcmp(ptr noundef nonnull %5, ptr noundef nonnull %7, i64 noundef %14) #16
  %27 = icmp slt i32 %26, 0
  br i1 %27, label %31, label %28

28:                                               ; preds = %25
  %29 = call i32 @memcmp(ptr noundef nonnull %4, ptr noundef nonnull %6, i64 noundef %14) #16
  %30 = icmp sgt i32 %29, 0
  br i1 %30, label %.loopexit, label %15

31:                                               ; preds = %25
  %32 = add nsw i32 %.128, 1
  %33 = tail call i32 @OPENSSL_sk_num(ptr noundef nonnull %0) #15
  %.not22 = icmp slt i32 %32, %33
  br i1 %.not22, label %.lr.ph, label %.loopexit

.loopexit:                                        ; preds = %19, %28, %15, %.preheader, %31, %.lr.ph, %.preheader24, %10, %3
  %.019 = phi i32 [ 1, %3 ], [ 0, %10 ], [ 1, %.preheader24 ], [ 0, %.lr.ph ], [ 0, %31 ], [ 0, %.preheader ], [ 0, %19 ], [ 0, %28 ], [ 1, %15 ]
  call void @llvm.lifetime.end.p0(i64 16, ptr nonnull %7) #15
  call void @llvm.lifetime.end.p0(i64 16, ptr nonnull %6) #15
  call void @llvm.lifetime.end.p0(i64 16, ptr nonnull %5) #15
  call void @llvm.lifetime.end.p0(i64 16, ptr nonnull %4) #15
  ret i32 %.019
}